target datalayout = "e-m:e-p270:32:32-p271:32:32-p272:64:64-i64:64-i128:128-f80:128-n8:16:32:64-S128"
target triple = "x86_64-pc-linux-gnu"

%struct._N_VectorContent_Serial = type { i64, i32, ptr }
%struct._generic_N_Vector = type { ptr, ptr }

; Function Attrs: nounwind uwtable
define void @N_VDestroy_Serial(ptr noundef %0) #0 {
  %2 = alloca ptr, align 8
  store ptr %0, ptr %2, align 8, !tbaa !7
  %3 = load ptr, ptr %2, align 8, !tbaa !7
  %4 = getelementptr inbounds nuw %struct._generic_N_Vector, ptr %3, i32 0, i32 0
  %5 = load ptr, ptr %4, align 8, !tbaa !46
  %6 = getelementptr inbounds nuw %struct._N_VectorContent_Serial, ptr %5, i32 0, i32 1
  %7 = load i32, ptr %6, align 8, !tbaa !44
  %8 = icmp eq i32 %7, 1
  br i1 %8, label %9, label %19

9:                                                ; preds = %1
  %10 = load ptr, ptr %2, align 8, !tbaa !7
  %11 = getelementptr inbounds nuw %struct._generic_N_Vector, ptr %10, i32 0, i32 0
  %12 = load ptr, ptr %11, align 8, !tbaa !46
  %13 = getelementptr inbounds nuw %struct._N_VectorContent_Serial, ptr %12, i32 0, i32 2
  %14 = load ptr, ptr %13, align 8, !tbaa !45
  call void @free(ptr noundef %14) #6
  %15 = load ptr, ptr %2, align 8, !tbaa !7
  %16 = getelementptr inbounds nuw %struct._generic_N_Vector, ptr %15, i32 0, i32 0
  %17 = load ptr, ptr %16, align 8, !tbaa !46
  %18 = getelementptr inbounds nuw %struct._N_VectorContent_Serial, ptr %17, i32 0, i32 2
  store ptr null, ptr %18, align 8, !tbaa !45
  br label %19

19:                                               ; preds = %9, %1
  %20 = load ptr, ptr %2, align 8, !tbaa !7
  %21 = getelementptr inbounds nuw %struct._generic_N_Vector, ptr %20, i32 0, i32 0
  %22 = load ptr, ptr %21, align 8, !tbaa !46
  call void @free(ptr noundef %22) #6
  %23 = load ptr, ptr %2, align 8, !tbaa !7
  %24 = getelementptr inbounds nuw %struct._generic_N_Vector, ptr %23, i32 0, i32 0
  store ptr null, ptr %24, align 8, !tbaa !46
  %25 = load ptr, ptr %2, align 8, !tbaa !7
  %26 = getelementptr inbounds nuw %struct._generic_N_Vector, ptr %25, i32 0, i32 1
  %27 = load ptr, ptr %26, align 8, !tbaa !48
  call void @free(ptr noundef %27) #6
  %28 = load ptr, ptr %2, align 8, !tbaa !7
  %29 = getelementptr inbounds nuw %struct._generic_N_Vector, ptr %28, i32 0, i32 1
  store ptr null, ptr %29, align 8, !tbaa !48
  %30 = load ptr, ptr %2, align 8, !tbaa !7
  call void @free(ptr noundef %30) #6
  store ptr null, ptr %2, align 8, !tbaa !7
  ret void
}

; Function Attrs: nounwind uwtable
define ptr @N_VClone_Serial(ptr noundef %0) #0 {
  %2 = alloca ptr, align 8
  %3 = alloca ptr, align 8
  %4 = alloca ptr, align 8
  %5 = alloca ptr, align 8
  %6 = alloca i64, align 8
  %7 = alloca i32, align 4
  store ptr %0, ptr %3, align 8, !tbaa !7
  call void @llvm.lifetime.start.p0(i64 8, ptr %4) #6
  call void @llvm.lifetime.start.p0(i64 8, ptr %5) #6
  call void @llvm.lifetime.start.p0(i64 8, ptr %6) #6
  store ptr null, ptr %4, align 8, !tbaa !7
  %8 = load ptr, ptr %3, align 8, !tbaa !7
  %9 = call ptr @N_VCloneEmpty_Serial(ptr noundef %8)
  store ptr %9, ptr %4, align 8, !tbaa !7
  %10 = load ptr, ptr %4, align 8, !tbaa !7
  %11 = icmp eq ptr %10, null
  br i1 %11, label %12, label %13

12:                                               ; preds = %1
  store ptr null, ptr %2, align 8
  store i32 1, ptr %7, align 4
  br label %41

13:                                               ; preds = %1
  %14 = load ptr, ptr %3, align 8, !tbaa !7
  %15 = getelementptr inbounds nuw %struct._generic_N_Vector, ptr %14, i32 0, i32 0
  %16 = load ptr, ptr %15, align 8, !tbaa !46
  %17 = getelementptr inbounds nuw %struct._N_VectorContent_Serial, ptr %16, i32 0, i32 0
  %18 = load i64, ptr %17, align 8, !tbaa !40
  store i64 %18, ptr %6, align 8, !tbaa !3
  %19 = load i64, ptr %6, align 8, !tbaa !3
  %20 = icmp sgt i64 %19, 0
  br i1 %20, label %21, label %39

21:                                               ; preds = %13
  store ptr null, ptr %5, align 8, !tbaa !49
  %22 = load i64, ptr %6, align 8, !tbaa !3
  %23 = mul i64 %22, 8
  %24 = call noalias ptr @malloc(i64 noundef %23) #7
  store ptr %24, ptr %5, align 8, !tbaa !49
  %25 = load ptr, ptr %5, align 8, !tbaa !49
  %26 = icmp eq ptr %25, null
  br i1 %26, label %27, label %29

27:                                               ; preds = %21
  %28 = load ptr, ptr %4, align 8, !tbaa !7
  call void @N_VDestroy_Serial(ptr noundef %28)
  store ptr null, ptr %2, align 8
  store i32 1, ptr %7, align 4
  br label %41

29:                                               ; preds = %21
  %30 = load ptr, ptr %4, align 8, !tbaa !7
  %31 = getelementptr inbounds nuw %struct._generic_N_Vector, ptr %30, i32 0, i32 0
  %32 = load ptr, ptr %31, align 8, !tbaa !46
  %33 = getelementptr inbounds nuw %struct._N_VectorContent_Serial, ptr %32, i32 0, i32 1
  store i32 1, ptr %33, align 8, !tbaa !44
  %34 = load ptr, ptr %5, align 8, !tbaa !49
  %35 = load ptr, ptr %4, align 8, !tbaa !7
  %36 = getelementptr inbounds nuw %struct._generic_N_Vector, ptr %35, i32 0, i32 0
  %37 = load ptr, ptr %36, align 8, !tbaa !46
  %38 = getelementptr inbounds nuw %struct._N_VectorContent_Serial, ptr %37, i32 0, i32 2
  store ptr %34, ptr %38, align 8, !tbaa !45
  br label %39

39:                                               ; preds = %29, %13
  %40 = load ptr, ptr %4, align 8, !tbaa !7
  store ptr %40, ptr %2, align 8
  store i32 1, ptr %7, align 4
  br label %41

41:                                               ; preds = %39, %27, %12
  call void @llvm.lifetime.end.p0(i64 8, ptr %6) #6
  call void @llvm.lifetime.end.p0(i64 8, ptr %5) #6
  call void @llvm.lifetime.end.p0(i64 8, ptr %4) #6
  %42 = load ptr, ptr %2, align 8
  ret ptr %42
}