; Function Attrs: mustprogress nounwind willreturn uwtable
define noalias noundef ptr @N_VClone_Serial(ptr noundef captures(address_is_null) %0) #3 {
  %2 = tail call ptr @N_VCloneEmpty_Serial(ptr noundef %0)
  %3 = icmp eq ptr %2, null
  br i1 %3, label %24, label %4

4:                                                ; preds = %1
  %5 = load ptr, ptr %0, align 8, !tbaa !39
  %6 = load i64, ptr %5, align 8, !tbaa !32
  %7 = icmp sgt i64 %6, 0
  br i1 %7, label %8, label %24

8:                                                ; preds = %4
  %9 = shl i64 %6, 3
  %10 = tail call noalias ptr @malloc(i64 noundef %9) #17
  %11 = icmp eq ptr %10, null
  %12 = load ptr, ptr %2, align 8, !tbaa !39
  %13 = getelementptr inbounds nuw i8, ptr %12, i64 8
  br i1 %11, label %14, label %22

14:                                               ; preds = %8
  %15 = load i32, ptr %13, align 8, !tbaa !37
  %16 = icmp eq i32 %15, 1
  br i1 %16, label %17, label %N_VDestroy_Serial.exit

17:                                               ; preds = %14
  %18 = getelementptr inbounds nuw i8, ptr %12, i64 16
  %19 = load ptr, ptr %18, align 8, !tbaa !38
  tail call void @free(ptr noundef %19) #18
  br label %N_VDestroy_Serial.exit

N_VDestroy_Serial.exit:                           ; preds = %14, %17
  tail call void @free(ptr noundef nonnull %12) #18
  store ptr null, ptr %2, align 8, !tbaa !39
  %20 = getelementptr inbounds nuw i8, ptr %2, i64 8
  %21 = load ptr, ptr %20, align 8, !tbaa !42
  tail call void @free(ptr noundef %21) #18
  tail call void @free(ptr noundef nonnull %2) #18
  br label %24

22:                                               ; preds = %8
  store i32 1, ptr %13, align 8, !tbaa !37
  %23 = getelementptr inbounds nuw i8, ptr %12, i64 16
  store ptr %10, ptr %23, align 8, !tbaa !38
  br label %24

24:                                               ; preds = %4, %22, %1, %N_VDestroy_Serial.exit
  %.0 = phi ptr [ null, %N_VDestroy_Serial.exit ], [ null, %1 ], [ %2, %22 ], [ %2, %4 ]
  ret ptr %.0
}